target datalayout = "e-m:e-p270:32:32-p271:32:32-p272:64:64-i64:64-i128:128-f80:128-n8:16:32:64-S128"
target triple = "x86_64-pc-linux-gnu"

%struct.slurm_jc_conf = type { i8, ptr, ptr, ptr, i32, i32, ptr, i8, ptr, i8 }

@jc_conf = internal global ptr null, align 8
@.str.74 = private unnamed_addr constant [46 x i8] c"%s: no path to private directories specified.\00", align 1
@__func__._mount_private_dirs = private unnamed_addr constant [20 x i8] c"_mount_private_dirs\00", align 1
@.str.75 = private unnamed_addr constant [2 x i8] c",\00", align 1
@.str.76 = private unnamed_addr constant [9 x i8] c"/dev/shm\00", align 1
@.str.77 = private unnamed_addr constant [6 x i8] c"%s/%s\00", align 1
@.str.78 = private unnamed_addr constant [28 x i8] c"%s: Failed to create %s, %m\00", align 1
@.str.79 = private unnamed_addr constant [29 x i8] c"%s: lchown failed for %s: %m\00", align 1
@.str.80 = private unnamed_addr constant [24 x i8] c"%s: %s mount failed, %m\00", align 1

; Function Attrs: nounwind uwtable
define internal i32 @_mount_private_dirs(ptr noundef %0, i32 noundef %1) #0 {
  %3 = alloca i32, align 4
  %4 = alloca ptr, align 8
  %5 = alloca i32, align 4
  %6 = alloca ptr, align 8
  %7 = alloca ptr, align 8
  %8 = alloca ptr, align 8
  %9 = alloca ptr, align 8
  %10 = alloca i32, align 4
  %11 = alloca i32, align 4
  %12 = alloca ptr, align 8
  store ptr %0, ptr %4, align 8
  store i32 %1, ptr %5, align 4
  call void @llvm.lifetime.start.p0(i64 8, ptr %6) #8
  store ptr null, ptr %6, align 8
  call void @llvm.lifetime.start.p0(i64 8, ptr %7) #8
  store ptr null, ptr %7, align 8
  call void @llvm.lifetime.start.p0(i64 8, ptr %8) #8
  store ptr null, ptr %8, align 8
  call void @llvm.lifetime.start.p0(i64 8, ptr %9) #8
  call void @llvm.lifetime.start.p0(i64 4, ptr %10) #8
  store i32 0, ptr %10, align 4
  %13 = load ptr, ptr %4, align 8
  %14 = icmp ne ptr %13, null
  br i1 %14, label %17, label %15

15:                                               ; preds = %2
  %16 = call i32 (ptr, ...) @slurm_error(ptr noundef @.str.74, ptr noundef @__func__._mount_private_dirs)
  store i32 -1, ptr %3, align 4
  store i32 1, ptr %11, align 4
  br label %91

17:                                               ; preds = %2
  %18 = load ptr, ptr @jc_conf, align 8
  %19 = getelementptr inbounds nuw %struct.slurm_jc_conf, ptr %18, i32 0, i32 6
  %20 = load ptr, ptr %19, align 8
  %21 = call ptr @slurm_xstrdup(ptr noundef %20)
  store ptr %21, ptr %6, align 8
  %22 = load ptr, ptr %6, align 8
  %23 = call ptr @strtok_r(ptr noundef %22, ptr noundef @.str.75, ptr noundef %8) #8
  store ptr %23, ptr %9, align 8
  br label %24

24:                                               ; preds = %86, %31, %17
  %25 = load ptr, ptr %9, align 8
  %26 = icmp ne ptr %25, null
  br i1 %26, label %27, label %88

27:                                               ; preds = %24
  %28 = load ptr, ptr %9, align 8
  %29 = call i32 @slurm_xstrcmp(ptr noundef %28, ptr noundef @.str.76)
  %30 = icmp ne i32 %29, 0
  br i1 %30, label %33, label %31

31:                                               ; preds = %27
  %32 = call ptr @strtok_r(ptr noundef null, ptr noundef @.str.75, ptr noundef %8) #8
  store ptr %32, ptr %9, align 8
  br label %24, !llvm.loop !17

33:                                               ; preds = %27
  %34 = load ptr, ptr %4, align 8
  %35 = load ptr, ptr %9, align 8
  call void (ptr, ptr, ...) @slurm_xstrfmtcat(ptr noundef %7, ptr noundef @.str.77, ptr noundef %34, ptr noundef %35)
  call void @llvm.lifetime.start.p0(i64 8, ptr %12) #8
  %36 = load ptr, ptr %7, align 8
  %37 = load ptr, ptr %4, align 8
  %38 = call i64 @strlen(ptr noundef %37) #11
  %39 = getelementptr inbounds nuw i8, ptr %36, i64 %38
  %40 = getelementptr inbounds i8, ptr %39, i64 1
  store ptr %40, ptr %12, align 8
  br label %41

41:                                               ; preds = %54, %33
  %42 = load ptr, ptr %12, align 8
  %43 = load i8, ptr %42, align 1
  %44 = icmp ne i8 %43, 0
  br i1 %44, label %46, label %45

45:                                               ; preds = %41
  store i32 4, ptr %11, align 4
  call void @llvm.lifetime.end.p0(i64 8, ptr %12) #8
  br label %57

46:                                               ; preds = %41
  %47 = load ptr, ptr %12, align 8
  %48 = load i8, ptr %47, align 1
  %49 = sext i8 %48 to i32
  %50 = icmp eq i32 %49, 47
  br i1 %50, label %51, label %53

51:                                               ; preds = %46
  %52 = load ptr, ptr %12, align 8
  store i8 95, ptr %52, align 1
  br label %53

53:                                               ; preds = %51, %46
  br label %54

54:                                               ; preds = %53
  %55 = load ptr, ptr %12, align 8
  %56 = getelementptr inbounds nuw i8, ptr %55, i32 1
  store ptr %56, ptr %12, align 8
  br label %41, !llvm.loop !18

57:                                               ; preds = %45
  %58 = load ptr, ptr %7, align 8
  %59 = call i32 @mkdir(ptr noundef %58, i32 noundef 448) #8
  store i32 %59, ptr %10, align 4
  %60 = load i32, ptr %10, align 4
  %61 = icmp ne i32 %60, 0
  br i1 %61, label %62, label %69

62:                                               ; preds = %57
  %63 = call ptr @__errno_location() #9
  %64 = load i32, ptr %63, align 4
  %65 = icmp ne i32 %64, 17
  br i1 %65, label %66, label %69

66:                                               ; preds = %62
  %67 = load ptr, ptr %7, align 8
  %68 = call i32 (ptr, ...) @slurm_error(ptr noundef @.str.78, ptr noundef @__func__._mount_private_dirs, ptr noundef %67)
  br label %89

69:                                               ; preds = %62, %57
  %70 = load ptr, ptr %7, align 8
  %71 = load i32, ptr %5, align 4
  %72 = call i32 @lchown(ptr noundef %70, i32 noundef %71, i32 noundef -1) #8
  store i32 %72, ptr %10, align 4
  %73 = load i32, ptr %10, align 4
  %74 = icmp ne i32 %73, 0
  br i1 %74, label %75, label %78

75:                                               ; preds = %69
  %76 = load ptr, ptr %7, align 8
  %77 = call i32 (ptr, ...) @slurm_error(ptr noundef @.str.79, ptr noundef @__func__._mount_private_dirs, ptr noundef %76)
  br label %89

78:                                               ; preds = %69
  %79 = load ptr, ptr %7, align 8
  %80 = load ptr, ptr %9, align 8
  %81 = call i32 @mount(ptr noundef %79, ptr noundef %80, ptr noundef null, i64 noundef 4096, ptr noundef null) #8
  %82 = icmp ne i32 %81, 0
  br i1 %82, label %83, label %86

83:                                               ; preds = %78
  %84 = load ptr, ptr %9, align 8
  %85 = call i32 (ptr, ...) @slurm_error(ptr noundef @.str.80, ptr noundef @__func__._mount_private_dirs, ptr noundef %84)
  store i32 -1, ptr %10, align 4
  br label %89

86:                                               ; preds = %78
  %87 = call ptr @strtok_r(ptr noundef null, ptr noundef @.str.75, ptr noundef %8) #8
  store ptr %87, ptr %9, align 8
  call void @slurm_xfree(ptr noundef %7)
  br label %24, !llvm.loop !17

88:                                               ; preds = %24
  br label %89

89:                                               ; preds = %88, %83, %75, %66
  call void @slurm_xfree(ptr noundef %6)
  call void @slurm_xfree(ptr noundef %7)
  %90 = load i32, ptr %10, align 4
  store i32 %90, ptr %3, align 4
  store i32 1, ptr %11, align 4
  br label %91

91:                                               ; preds = %89, %15
  call void @llvm.lifetime.end.p0(i64 4, ptr %10) #8
  call void @llvm.lifetime.end.p0(i64 8, ptr %9) #8
  call void @llvm.lifetime.end.p0(i64 8, ptr %8) #8
  call void @llvm.lifetime.end.p0(i64 8, ptr %7) #8
  call void @llvm.lifetime.end.p0(i64 8, ptr %6) #8
  %92 = load i32, ptr %3, align 4
  ret i32 %92
}