; Function Attrs: nounwind uwtable
define internal fastcc noundef i32 @_mount_private_dirs(ptr noundef %0, i32 noundef %1) unnamed_addr #0 {
  %3 = alloca ptr, align 8
  %4 = alloca ptr, align 8
  %5 = alloca ptr, align 8
  call void @llvm.lifetime.start.p0(i64 8, ptr nonnull %3) #12
  call void @llvm.lifetime.start.p0(i64 8, ptr nonnull %4) #12
  store ptr null, ptr %4, align 8
  call void @llvm.lifetime.start.p0(i64 8, ptr nonnull %5) #12
  store ptr null, ptr %5, align 8
  %.not = icmp eq ptr %0, null
  br i1 %.not, label %6, label %8

6:                                                ; preds = %2
  %7 = tail call i32 (ptr, ...) @slurm_error(ptr noundef nonnull @.str.74, ptr noundef nonnull @__func__._mount_private_dirs) #12
  br label %45

8:                                                ; preds = %2
  %9 = load ptr, ptr @jc_conf, align 8
  %10 = getelementptr inbounds nuw i8, ptr %9, i64 40
  %11 = load ptr, ptr %10, align 8
  %12 = tail call ptr @slurm_xstrdup(ptr noundef %11) #12
  store ptr %12, ptr %3, align 8
  %13 = call ptr @strtok_r(ptr noundef %12, ptr noundef nonnull @.str.75, ptr noundef nonnull %5) #12
  %.not2438 = icmp eq ptr %13, null
  br i1 %.not2438, label %.loopexit, label %.lr.ph

.lr.ph:                                           ; preds = %8, %.backedge
  %.01739 = phi ptr [ %.017.be, %.backedge ], [ %13, %8 ]
  %14 = call i32 @slurm_xstrcmp(ptr noundef nonnull %.01739, ptr noundef nonnull @.str.76) #12
  %.not25 = icmp eq i32 %14, 0
  br i1 %.not25, label %15, label %17

15:                                               ; preds = %.lr.ph
  %16 = call ptr @strtok_r(ptr noundef null, ptr noundef nonnull @.str.75, ptr noundef nonnull %5) #12
  br label %.backedge

.backedge:                                        ; preds = %15, %43
  %.017.be = phi ptr [ %44, %43 ], [ %16, %15 ]
  %.not24 = icmp eq ptr %.017.be, null
  br i1 %.not24, label %.loopexit, label %.lr.ph, !llvm.loop !17

17:                                               ; preds = %.lr.ph
  call void (ptr, ptr, ...) @slurm_xstrfmtcat(ptr noundef nonnull %4, ptr noundef nonnull @.str.77, ptr noundef nonnull %0, ptr noundef nonnull %.01739) #12
  %18 = load ptr, ptr %4, align 8
  %19 = call i64 @strlen(ptr noundef nonnull dereferenceable(1) %0) #15
  %20 = getelementptr inbounds nuw i8, ptr %18, i64 %19
  br label %21

21:                                               ; preds = %.backedge61, %17
  %.pn = phi ptr [ %20, %17 ], [ %.0, %.backedge61 ]
  %.0 = getelementptr inbounds nuw i8, ptr %.pn, i64 1
  %22 = load i8, ptr %.0, align 1
  switch i8 %22, label %.backedge61 [
    i8 0, label %23
    i8 47, label %26
  ]

.backedge61:                                      ; preds = %21, %26
  br label %21, !llvm.loop !18

23:                                               ; preds = %21
  %24 = load ptr, ptr %4, align 8
  %25 = call i32 @mkdir(ptr noundef %24, i32 noundef 448) #12
  %.not27 = icmp eq i32 %25, 0
  br i1 %.not27, label %33, label %27

26:                                               ; preds = %21
  store i8 95, ptr %.0, align 1
  br label %.backedge61

27:                                               ; preds = %23
  %28 = tail call ptr @__errno_location() #13
  %29 = load i32, ptr %28, align 4
  %.not28 = icmp eq i32 %29, 17
  br i1 %.not28, label %33, label %30

30:                                               ; preds = %27
  %31 = load ptr, ptr %4, align 8
  %32 = call i32 (ptr, ...) @slurm_error(ptr noundef nonnull @.str.78, ptr noundef nonnull @__func__._mount_private_dirs, ptr noundef %31) #12
  br label %.loopexit

33:                                               ; preds = %27, %23
  %34 = load ptr, ptr %4, align 8
  %35 = call i32 @lchown(ptr noundef %34, i32 noundef %1, i32 noundef -1) #12
  %.not29 = icmp eq i32 %35, 0
  %36 = load ptr, ptr %4, align 8
  br i1 %.not29, label %39, label %37

37:                                               ; preds = %33
  %38 = call i32 (ptr, ...) @slurm_error(ptr noundef nonnull @.str.79, ptr noundef nonnull @__func__._mount_private_dirs, ptr noundef %36) #12
  br label %.loopexit

39:                                               ; preds = %33
  %40 = call i32 @mount(ptr noundef %36, ptr noundef nonnull %.01739, ptr noundef null, i64 noundef 4096, ptr noundef null) #12
  %.not30 = icmp eq i32 %40, 0
  br i1 %.not30, label %43, label %41

41:                                               ; preds = %39
  %42 = call i32 (ptr, ...) @slurm_error(ptr noundef nonnull @.str.80, ptr noundef nonnull @__func__._mount_private_dirs, ptr noundef nonnull %.01739) #12
  br label %.loopexit

43:                                               ; preds = %39
  %44 = call ptr @strtok_r(ptr noundef null, ptr noundef nonnull @.str.75, ptr noundef nonnull %5) #12
  call void @slurm_xfree(ptr noundef nonnull %4) #12
  br label %.backedge

.loopexit:                                        ; preds = %.backedge, %8, %41, %37, %30
  %.1 = phi i32 [ %25, %30 ], [ %35, %37 ], [ -1, %41 ], [ 0, %8 ], [ 0, %.backedge ]
  call void @slurm_xfree(ptr noundef nonnull %3) #12
  call void @slurm_xfree(ptr noundef nonnull %4) #12
  br label %45

45:                                               ; preds = %.loopexit, %6
  %.018 = phi i32 [ %.1, %.loopexit ], [ -1, %6 ]
  call void @llvm.lifetime.end.p0(i64 8, ptr nonnull %5) #12
  call void @llvm.lifetime.end.p0(i64 8, ptr nonnull %4) #12
  call void @llvm.lifetime.end.p0(i64 8, ptr nonnull %3) #12
  ret i32 %.018
}